target datalayout = "e-m:e-p270:32:32-p271:32:32-p272:64:64-i64:64-i128:128-f80:128-n8:16:32:64-S128"
target triple = "x86_64-pc-linux-gnu"

%struct.Context = type { i32, i32, i32, i32, i32, i32, i32, i32, i32, i32, i32, i32, ptr, ptr, ptr, [80 x i8], i64, i64, i32, [24 x i32], i64, i64, i32, ptr, ptr, i64, ptr, ptr, ptr, i32, i32, i32, ptr, ptr, ptr, ptr, ptr, i64, ptr, ptr, i64, ptr, i64, ptr, i64, i64, i64, i64 }

; Function Attrs: nounwind uwtable
define internal void @OnMetadataStart(ptr noundef %0, i64 noundef %1) #0 {
  %3 = alloca ptr, align 8
  %4 = alloca i64, align 8
  %5 = alloca ptr, align 8
  %6 = alloca i32, align 4
  store ptr %0, ptr %3, align 8, !tbaa !57
  store i64 %1, ptr %4, align 8, !tbaa !52
  call void @llvm.lifetime.start.p0(i64 8, ptr %5) #8
  %7 = load ptr, ptr %3, align 8, !tbaa !57
  store ptr %7, ptr %5, align 8, !tbaa !57
  %8 = load ptr, ptr %5, align 8, !tbaa !57
  %9 = getelementptr inbounds nuw %struct.Context, ptr %8, i32 0, i32 18
  %10 = load i32, ptr %9, align 8, !tbaa !98
  %11 = icmp eq i32 %10, 0
  br i1 %11, label %12, label %26

12:                                               ; preds = %2
  %13 = load ptr, ptr %5, align 8, !tbaa !57
  %14 = getelementptr inbounds nuw %struct.Context, ptr %13, i32 0, i32 16
  %15 = load i64, ptr %14, align 8, !tbaa !20
  %16 = load i64, ptr %4, align 8, !tbaa !52
  %17 = icmp ne i64 %15, %16
  br i1 %17, label %18, label %21

18:                                               ; preds = %12
  %19 = load ptr, ptr %5, align 8, !tbaa !57
  %20 = getelementptr inbounds nuw %struct.Context, ptr %19, i32 0, i32 18
  store i32 3, ptr %20, align 8, !tbaa !98
  store i32 1, ptr %6, align 4
  br label %27

21:                                               ; preds = %12
  %22 = load ptr, ptr %5, align 8, !tbaa !57
  %23 = getelementptr inbounds nuw %struct.Context, ptr %22, i32 0, i32 17
  store i64 0, ptr %23, align 8, !tbaa !99
  %24 = load ptr, ptr %5, align 8, !tbaa !57
  %25 = getelementptr inbounds nuw %struct.Context, ptr %24, i32 0, i32 18
  store i32 1, ptr %25, align 8, !tbaa !98
  br label %26

26:                                               ; preds = %21, %2
  store i32 0, ptr %6, align 4
  br label %27

27:                                               ; preds = %26, %18
  call void @llvm.lifetime.end.p0(i64 8, ptr %5) #8
  %28 = load i32, ptr %6, align 4
  switch i32 %28, label %30 [
    i32 0, label %29
    i32 1, label %29
  ]

29:                                               ; preds = %27, %27
  ret void

30:                                               ; preds = %27
  unreachable
}