; Function Attrs: mustprogress nofree norecurse nosync nounwind willreturn memory(argmem: readwrite) uwtable
define internal void @OnMetadataStart(ptr noundef captures(none) %0, i64 noundef %1) #17 {
  %3 = getelementptr inbounds nuw i8, ptr %0, i64 168
  %4 = load i32, ptr %3, align 8, !tbaa !66
  %5 = icmp eq i32 %4, 0
  br i1 %5, label %6, label %11

6:                                                ; preds = %2
  %7 = getelementptr inbounds nuw i8, ptr %0, i64 152
  %8 = load i64, ptr %7, align 8, !tbaa !17
  %.not = icmp eq i64 %8, %1
  br i1 %.not, label %9, label %.sink.split

9:                                                ; preds = %6
  %10 = getelementptr inbounds nuw i8, ptr %0, i64 160
  store i64 0, ptr %10, align 8, !tbaa !82
  br label %.sink.split

.sink.split:                                      ; preds = %6, %9
  %.sink = phi i32 [ 1, %9 ], [ 3, %6 ]
  store i32 %.sink, ptr %3, align 8, !tbaa !66
  br label %11

11:                                               ; preds = %.sink.split, %2
  ret void
}